target datalayout = "e-m:e-p270:32:32-p271:32:32-p272:64:64-i64:64-i128:128-f80:128-n8:16:32:64-S128"
target triple = "x86_64-pc-linux-gnu"

%"class.absl::debugging_internal::ElfMemImage" = type { ptr, ptr, ptr, ptr, ptr, i32, i64, i64, i64 }
%struct.Elf64_Sym = type { i32, i8, i8, i16, i64, i64 }

@.str = private unnamed_addr constant [140 x i8] c"generated/home/dtcxzyw/WorkSpace/Projects/compilers/llvm-opt-benchmark/bench/abseil-cpp/abseil-cpp/absl/debugging/internal/elf_mem_image.cc\00", align 1
@.str.1 = private unnamed_addr constant [20 x i8] c"Check %s failed: %s\00", align 1
@.str.9 = private unnamed_addr constant [27 x i8] c"link_base_ < sym->st_value\00", align 1
@.str.10 = private unnamed_addr constant [20 x i8] c"symbol out of range\00", align 1

; Function Attrs: mustprogress nounwind uwtable
define internal noundef ptr @_ZN4absl18debugging_internal12_GLOBAL__N_115GetTableElementIcEEPKT_PK10Elf64_Ehdrmjm(ptr noundef %0, i64 noundef %1, i32 noundef %2, i64 noundef %3) #4 {
  %5 = alloca ptr, align 8
  %6 = alloca i64, align 8
  %7 = alloca i32, align 4
  %8 = alloca i64, align 8
  store ptr %0, ptr %5, align 8, !tbaa !9
  store i64 %1, ptr %6, align 8, !tbaa !35
  store i32 %2, ptr %7, align 4, !tbaa !26
  store i64 %3, ptr %8, align 8, !tbaa !35
  %9 = load ptr, ptr %5, align 8, !tbaa !9
  %10 = load i64, ptr %6, align 8, !tbaa !35
  %11 = getelementptr inbounds nuw i8, ptr %9, i64 %10
  %12 = load i64, ptr %8, align 8, !tbaa !35
  %13 = load i32, ptr %7, align 4, !tbaa !26
  %14 = zext i32 %13 to i64
  %15 = mul i64 %12, %14
  %16 = getelementptr inbounds nuw i8, ptr %11, i64 %15
  ret ptr %16
}

; Function Attrs: mustprogress uwtable
define dso_local noundef ptr @_ZNK4absl18debugging_internal11ElfMemImage10GetSymAddrEPK9Elf64_Sym(ptr noundef nonnull align 8 dereferenceable(72) %0, ptr noundef %1) #0 align 2 {
  %3 = alloca ptr, align 8
  %4 = alloca ptr, align 8
  %5 = alloca ptr, align 8
  %6 = alloca ptr, align 8
  store ptr %0, ptr %4, align 8, !tbaa !4
  store ptr %1, ptr %5, align 8, !tbaa !9
  %7 = load ptr, ptr %4, align 8
  %8 = load ptr, ptr %5, align 8, !tbaa !9
  %9 = getelementptr inbounds nuw %struct.Elf64_Sym, ptr %8, i32 0, i32 3
  %10 = load i16, ptr %9, align 2, !tbaa !45
  %11 = zext i16 %10 to i32
  %12 = icmp eq i32 %11, 0
  br i1 %12, label %19, label %13

13:                                               ; preds = %2
  %14 = load ptr, ptr %5, align 8, !tbaa !9
  %15 = getelementptr inbounds nuw %struct.Elf64_Sym, ptr %14, i32 0, i32 3
  %16 = load i16, ptr %15, align 2, !tbaa !45
  %17 = zext i16 %16 to i32
  %18 = icmp sge i32 %17, 65280
  br i1 %18, label %19, label %24

19:                                               ; preds = %13, %2
  %20 = load ptr, ptr %5, align 8, !tbaa !9
  %21 = getelementptr inbounds nuw %struct.Elf64_Sym, ptr %20, i32 0, i32 4
  %22 = load i64, ptr %21, align 8, !tbaa !47
  %23 = inttoptr i64 %22 to ptr
  store ptr %23, ptr %3, align 8
  br label %53

24:                                               ; preds = %13
  br label %25

25:                                               ; preds = %24
  %26 = getelementptr inbounds nuw %"class.absl::debugging_internal::ElfMemImage", ptr %7, i32 0, i32 8
  %27 = load i64, ptr %26, align 8, !tbaa !24
  %28 = load ptr, ptr %5, align 8, !tbaa !9
  %29 = getelementptr inbounds nuw %struct.Elf64_Sym, ptr %28, i32 0, i32 4
  %30 = load i64, ptr %29, align 8, !tbaa !47
  %31 = icmp ult i64 %27, %30
  %32 = xor i1 %31, true
  %33 = zext i1 %32 to i64
  %34 = call i64 @llvm.expect.i64(i64 %33, i64 0)
  %35 = icmp ne i64 %34, 0
  br i1 %35, label %36, label %42

36:                                               ; preds = %25
  br label %37

37:                                               ; preds = %36
  call void @llvm.lifetime.start.p0(i64 8, ptr %6) #7
  store ptr getelementptr (i8, ptr @.str, i64 123), ptr %6, align 8, !tbaa !10
  call void (i32, ptr, i32, ptr, ...) @_ZN4absl16raw_log_internal6RawLogENS_11LogSeverityEPKciS3_z(i32 noundef 3, ptr noundef getelementptr (i8, ptr @.str, i64 123), i32 noundef 120, ptr noundef @.str.1, ptr noundef @.str.9, ptr noundef @.str.10)
  br label %38

38:                                               ; preds = %37
  unreachable

39:                                               ; No predecessors!
  br label %40

40:                                               ; preds = %39
  call void @llvm.lifetime.end.p0(i64 8, ptr %6) #7
  br label %41

41:                                               ; preds = %40
  br label %42

42:                                               ; preds = %41, %25
  br label %43

43:                                               ; preds = %42
  %44 = getelementptr inbounds nuw %"class.absl::debugging_internal::ElfMemImage", ptr %7, i32 0, i32 0
  %45 = load ptr, ptr %44, align 8, !tbaa !12
  %46 = load ptr, ptr %5, align 8, !tbaa !9
  %47 = getelementptr inbounds nuw %struct.Elf64_Sym, ptr %46, i32 0, i32 4
  %48 = load i64, ptr %47, align 8, !tbaa !47
  %49 = getelementptr inbounds nuw %"class.absl::debugging_internal::ElfMemImage", ptr %7, i32 0, i32 8
  %50 = load i64, ptr %49, align 8, !tbaa !24
  %51 = sub i64 %48, %50
  %52 = call noundef ptr @_ZN4absl18debugging_internal12_GLOBAL__N_115GetTableElementIcEEPKT_PK10Elf64_Ehdrmjm(ptr noundef %45, i64 noundef 0, i32 noundef 1, i64 noundef %51)
  store ptr %52, ptr %3, align 8
  br label %53

53:                                               ; preds = %43, %19
  %54 = load ptr, ptr %3, align 8
  ret ptr %54
}