; Function Attrs: mustprogress uwtable
define dso_local noundef ptr @_ZNK4absl18debugging_internal11ElfMemImage10GetSymAddrEPK9Elf64_Sym(ptr noundef nonnull readonly align 8 captures(none) dereferenceable(72) %0, ptr noundef readonly captures(none) %1) local_unnamed_addr #0 align 2 {
  %3 = getelementptr inbounds nuw i8, ptr %1, i64 6
  %4 = load i16, ptr %3, align 2, !tbaa !40
  %5 = add i16 %4, 256
  %or.cond = icmp ult i16 %5, 257
  br i1 %or.cond, label %6, label %10

6:                                                ; preds = %2
  %7 = getelementptr inbounds nuw i8, ptr %1, i64 8
  %8 = load i64, ptr %7, align 8, !tbaa !42
  %9 = inttoptr i64 %8 to ptr
  br label %20

10:                                               ; preds = %2
  %11 = getelementptr inbounds nuw i8, ptr %0, i64 64
  %12 = load i64, ptr %11, align 8, !tbaa !5
  %13 = getelementptr inbounds nuw i8, ptr %1, i64 8
  %14 = load i64, ptr %13, align 8, !tbaa !42
  %.not = icmp ult i64 %12, %14
  br i1 %.not, label %16, label %15, !prof !39

15:                                               ; preds = %10
  tail call void (i32, ptr, i32, ptr, ...) @_ZN4absl16raw_log_internal6RawLogENS_11LogSeverityEPKciS3_z(i32 noundef 3, ptr noundef nonnull getelementptr inbounds nuw (i8, ptr @.str, i64 123), i32 noundef 120, ptr noundef nonnull @.str.1, ptr noundef nonnull @.str.9, ptr noundef nonnull @.str.10)
  unreachable

16:                                               ; preds = %10
  %17 = load ptr, ptr %0, align 8, !tbaa !15
  %18 = sub nuw i64 %14, %12
  %19 = getelementptr inbounds nuw i8, ptr %17, i64 %18
  br label %20

20:                                               ; preds = %16, %6
  %.0 = phi ptr [ %9, %6 ], [ %19, %16 ]
  ret ptr %.0
}